target datalayout = "e-m:e-p270:32:32-p271:32:32-p272:64:64-i64:64-i128:128-f80:128-n8:16:32:64-S128"
target triple = "x86_64-unknown-linux-gnu"

%struct.hlist_head = type { ptr }
%struct.pcpu_hot = type { %union.anon.31 }
%union.anon.31 = type { %struct.anon.32, [16 x i8] }
%struct.anon.32 = type { ptr, i32, i32, i64, i64, ptr, i16, i8 }

@posix_timers_hashtable = internal global [512 x %struct.hlist_head] zeroinitializer, align 16
@pcpu_hot = external dso_local global %struct.pcpu_hot, section ".data..percpu..shared_aligned", align 64

; Function Attrs: fn_ret_thunk_extern nounwind null_pointer_is_valid
define internal fastcc ptr @__lock_timer(i32 noundef %0, ptr nocapture noundef writeonly %1) unnamed_addr #1 align 16 {
  %3 = icmp slt i32 %0, 0
  br i1 %3, label %52, label %4

4:                                                ; preds = %2
  tail call void @__rcu_read_lock() #8
  %5 = tail call i64 asm "movq %gs:${1:P}, $0", "=r,p,~{dirflag},~{fpsr},~{flags}"(ptr nonnull @pcpu_hot) #9, !srcloc !6
  %6 = inttoptr i64 %5 to ptr
  %7 = getelementptr inbounds i8, ptr %6, i64 1880
  %8 = load ptr, ptr %7, align 8
  %9 = ptrtoint ptr %8 to i64
  %10 = lshr i64 %9, 32
  %11 = xor i64 %10, %9
  %12 = trunc i64 %11 to i32
  %13 = xor i32 %12, %0
  %14 = mul i32 %13, 1640531527
  %15 = lshr i32 %14, 23
  %16 = zext nneg i32 %15 to i64
  %17 = getelementptr [512 x %struct.hlist_head], ptr @posix_timers_hashtable, i64 0, i64 %16
  %18 = load volatile ptr, ptr %17, align 8
  %19 = icmp eq ptr %18, null
  %20 = getelementptr i8, ptr %18, i64 -16
  %21 = icmp eq ptr %20, null
  %22 = or i1 %19, %21
  br i1 %22, label %39, label %23

23:                                               ; preds = %32, %4
  %24 = phi ptr [ %37, %32 ], [ %20, %4 ]
  %25 = getelementptr inbounds i8, ptr %24, i64 96
  %26 = load volatile ptr, ptr %25, align 8
  %27 = icmp eq ptr %26, %8
  br i1 %27, label %28, label %32

28:                                               ; preds = %23
  %29 = getelementptr inbounds i8, ptr %24, i64 52
  %30 = load i32, ptr %29, align 4
  %31 = icmp eq i32 %30, %0
  br i1 %31, label %39, label %32

32:                                               ; preds = %28, %23
  %33 = getelementptr inbounds i8, ptr %24, i64 16
  %34 = load volatile ptr, ptr %33, align 8
  %35 = icmp eq ptr %34, null
  %36 = getelementptr i8, ptr %34, i64 -16
  %37 = select i1 %35, ptr null, ptr %36
  %38 = icmp eq ptr %37, null
  br i1 %38, label %39, label %23, !llvm.loop !7

39:                                               ; preds = %32, %28, %4
  %40 = phi ptr [ null, %4 ], [ %24, %28 ], [ null, %32 ]
  %41 = icmp eq ptr %40, null
  br i1 %41, label %50, label %42

42:                                               ; preds = %39
  %43 = getelementptr inbounds i8, ptr %40, i64 32
  %44 = tail call i64 @_raw_spin_lock_irqsave(ptr noundef %43) #8
  store i64 %44, ptr %1, align 8
  %45 = getelementptr inbounds i8, ptr %40, i64 96
  %46 = load ptr, ptr %45, align 8
  %47 = load ptr, ptr %7, align 8
  %48 = icmp eq ptr %46, %47
  br i1 %48, label %50, label %49

49:                                               ; preds = %42
  tail call void @_raw_spin_unlock_irqrestore(ptr noundef %43, i64 noundef %44) #8
  br label %50

50:                                               ; preds = %49, %42, %39
  %51 = phi ptr [ %40, %42 ], [ null, %49 ], [ null, %39 ]
  tail call void @__rcu_read_unlock() #8
  br label %52

52:                                               ; preds = %50, %2
  %53 = phi ptr [ null, %2 ], [ %51, %50 ]
  ret ptr %53
}

; Function Attrs: fn_ret_thunk_extern nounwind null_pointer_is_valid
define dso_local void @posixtimer_rearm(ptr nocapture noundef %0) local_unnamed_addr #1 align 16 {
  %2 = alloca i64, align 8
  call void @llvm.lifetime.start.p0(i64 8, ptr nonnull %2) #8
  store i64 0, ptr %2, align 8, !annotation !5
  %3 = getelementptr inbounds i8, ptr %0, i64 16
  %4 = load i32, ptr %3, align 8
  %5 = call fastcc ptr @__lock_timer(i32 noundef %4, ptr noundef nonnull %2)
  %6 = icmp eq ptr %5, null
  br i1 %6, label %37, label %7

7:                                                ; preds = %1
  %8 = getelementptr inbounds i8, ptr %5, i64 88
  %9 = load i64, ptr %8, align 8
  %10 = icmp eq i64 %9, 0
  br i1 %10, label %34, label %11

11:                                               ; preds = %7
  %12 = getelementptr inbounds i8, ptr %5, i64 80
  %13 = load i32, ptr %12, align 8
  %14 = getelementptr inbounds i8, ptr %0, i64 32
  %15 = load i32, ptr %14, align 8
  %16 = icmp eq i32 %13, %15
  br i1 %16, label %17, label %34

17:                                               ; preds = %11
  %18 = getelementptr inbounds i8, ptr %5, i64 40
  %19 = load ptr, ptr %18, align 8
  %20 = getelementptr inbounds i8, ptr %19, i64 80
  %21 = load ptr, ptr %20, align 8
  tail call void %21(ptr noundef nonnull %5) #8
  %22 = getelementptr inbounds i8, ptr %5, i64 56
  store i32 1, ptr %22, align 8
  %23 = getelementptr inbounds i8, ptr %5, i64 64
  %24 = load i64, ptr %23, align 8
  %25 = getelementptr inbounds i8, ptr %5, i64 72
  store i64 %24, ptr %25, align 8
  store i64 -1, ptr %23, align 8
  %26 = load i32, ptr %12, align 8
  %27 = add i32 %26, 1
  store i32 %27, ptr %12, align 8
  %28 = getelementptr inbounds i8, ptr %0, i64 20
  %29 = load i32, ptr %28, align 4
  %30 = sext i32 %29 to i64
  %31 = add i64 %24, %30
  %32 = tail call i64 @llvm.smin.i64(i64 %31, i64 2147483647)
  %33 = trunc i64 %32 to i32
  store i32 %33, ptr %28, align 4
  br label %34

34:                                               ; preds = %17, %11, %7
  %35 = load i64, ptr %2, align 8
  %36 = getelementptr inbounds i8, ptr %5, i64 32
  tail call void @_raw_spin_unlock_irqrestore(ptr noundef %36, i64 noundef %35) #8
  br label %37

37:                                               ; preds = %34, %1
  call void @llvm.lifetime.end.p0(i64 8, ptr nonnull %2) #8
  ret void
}