; Function Attrs: fn_ret_thunk_extern nounwind null_pointer_is_valid
define dso_local void @posixtimer_rearm(ptr nocapture noundef %0) local_unnamed_addr #1 align 16 {
  %2 = getelementptr inbounds i8, ptr %0, i64 16
  %3 = load i32, ptr %2, align 8
  %4 = icmp slt i32 %3, 0
  br i1 %4, label %__lock_timer.exit.thread, label %5

5:                                                ; preds = %1
  tail call void @__rcu_read_lock() #8
  %6 = tail call i64 asm "movq %gs:${1:P}, $0", "=r,p,~{dirflag},~{fpsr},~{flags}"(ptr nonnull @pcpu_hot) #9, !srcloc !5
  %7 = inttoptr i64 %6 to ptr
  %8 = getelementptr inbounds i8, ptr %7, i64 1880
  %9 = load ptr, ptr %8, align 8
  %10 = ptrtoint ptr %9 to i64
  %11 = lshr i64 %10, 32
  %12 = xor i64 %11, %10
  %13 = trunc i64 %12 to i32
  %14 = xor i32 %3, %13
  %15 = mul i32 %14, 1640531527
  %16 = lshr i32 %15, 23
  %17 = zext nneg i32 %16 to i64
  %18 = getelementptr [512 x %struct.hlist_head], ptr @posix_timers_hashtable, i64 0, i64 %17
  %19 = load volatile ptr, ptr %18, align 8
  %20 = icmp eq ptr %19, null
  %21 = getelementptr i8, ptr %19, i64 -16
  %22 = icmp eq ptr %21, null
  %23 = or i1 %20, %22
  br i1 %23, label %__lock_timer.exit.thread2, label %.preheader.i

.preheader.i:                                     ; preds = %5, %32
  %24 = phi ptr [ %36, %32 ], [ %21, %5 ]
  %25 = getelementptr inbounds i8, ptr %24, i64 96
  %26 = load volatile ptr, ptr %25, align 8
  %27 = icmp eq ptr %26, %9
  br i1 %27, label %28, label %32

28:                                               ; preds = %.preheader.i
  %29 = getelementptr inbounds i8, ptr %24, i64 52
  %30 = load i32, ptr %29, align 4
  %31 = icmp eq i32 %30, %3
  br i1 %31, label %39, label %32

32:                                               ; preds = %28, %.preheader.i
  %33 = getelementptr inbounds i8, ptr %24, i64 16
  %34 = load volatile ptr, ptr %33, align 8
  %35 = icmp eq ptr %34, null
  %36 = getelementptr i8, ptr %34, i64 -16
  %37 = icmp eq ptr %36, null
  %38 = or i1 %35, %37
  br i1 %38, label %__lock_timer.exit.thread2, label %.preheader.i, !llvm.loop !6

39:                                               ; preds = %28
  %40 = getelementptr inbounds i8, ptr %24, i64 96
  %41 = getelementptr inbounds i8, ptr %24, i64 32
  %42 = tail call i64 @_raw_spin_lock_irqsave(ptr noundef %41) #8
  %43 = load ptr, ptr %40, align 8
  %44 = load ptr, ptr %8, align 8
  %45 = icmp eq ptr %43, %44
  br i1 %45, label %47, label %46

46:                                               ; preds = %39
  tail call void @_raw_spin_unlock_irqrestore(ptr noundef %41, i64 noundef %42) #8
  br label %__lock_timer.exit.thread2

__lock_timer.exit.thread2:                        ; preds = %32, %46, %5
  tail call void @__rcu_read_unlock() #8
  br label %__lock_timer.exit.thread

47:                                               ; preds = %39
  tail call void @__rcu_read_unlock() #8
  %48 = getelementptr inbounds i8, ptr %24, i64 88
  %49 = load i64, ptr %48, align 8
  %50 = icmp eq i64 %49, 0
  br i1 %50, label %74, label %51

51:                                               ; preds = %47
  %52 = getelementptr inbounds i8, ptr %24, i64 80
  %53 = load i32, ptr %52, align 8
  %54 = getelementptr inbounds i8, ptr %0, i64 32
  %55 = load i32, ptr %54, align 8
  %56 = icmp eq i32 %53, %55
  br i1 %56, label %57, label %74

57:                                               ; preds = %51
  %58 = getelementptr inbounds i8, ptr %24, i64 40
  %59 = load ptr, ptr %58, align 8
  %60 = getelementptr inbounds i8, ptr %59, i64 80
  %61 = load ptr, ptr %60, align 8
  tail call void %61(ptr noundef nonnull %24) #8
  %62 = getelementptr inbounds i8, ptr %24, i64 56
  store i32 1, ptr %62, align 8
  %63 = getelementptr inbounds i8, ptr %24, i64 64
  %64 = load i64, ptr %63, align 8
  %65 = getelementptr inbounds i8, ptr %24, i64 72
  store i64 %64, ptr %65, align 8
  store i64 -1, ptr %63, align 8
  %66 = load i32, ptr %52, align 8
  %67 = add i32 %66, 1
  store i32 %67, ptr %52, align 8
  %68 = getelementptr inbounds i8, ptr %0, i64 20
  %69 = load i32, ptr %68, align 4
  %70 = sext i32 %69 to i64
  %71 = add i64 %64, %70
  %72 = tail call i64 @llvm.smin.i64(i64 %71, i64 2147483647)
  %73 = trunc i64 %72 to i32
  store i32 %73, ptr %68, align 4
  br label %74

74:                                               ; preds = %57, %51, %47
  tail call void @_raw_spin_unlock_irqrestore(ptr noundef %41, i64 noundef %42) #8
  br label %__lock_timer.exit.thread

__lock_timer.exit.thread:                         ; preds = %1, %__lock_timer.exit.thread2, %74
  ret void
}